target datalayout = "e-m:e-p270:32:32-p271:32:32-p272:64:64-i64:64-i128:128-f80:128-n8:16:32:64-S128"
target triple = "x86_64-pc-linux-gnu"

%struct.hostrange_t = type { ptr, i64, i64, i32, i8 }

@.str.7 = private unnamed_addr constant [11 x i8] c"hostlist.c\00", align 1
@__func__.hostrange_new = private unnamed_addr constant [14 x i8] c"hostrange_new\00", align 1

; Function Attrs: nounwind uwtable
define internal ptr @hostrange_new() #0 {
  %1 = call ptr @slurm_xcalloc(i64 noundef 1, i64 noundef 32, i1 noundef zeroext true, i1 noundef zeroext false, ptr noundef @.str.7, i32 noundef 563, ptr noundef @__func__.hostrange_new)
  ret ptr %1
}

; Function Attrs: nounwind uwtable
define internal ptr @hostrange_create(ptr noundef %0, i64 noundef %1, i64 noundef %2, i32 noundef %3) #0 {
  %5 = alloca ptr, align 8
  %6 = alloca i64, align 8
  %7 = alloca i64, align 8
  %8 = alloca i32, align 4
  %9 = alloca ptr, align 8
  store ptr %0, ptr %5, align 8
  store i64 %1, ptr %6, align 8
  store i64 %2, ptr %7, align 8
  store i32 %3, ptr %8, align 4
  call void @llvm.lifetime.start.p0(i64 8, ptr %9) #13
  %10 = call ptr @hostrange_new()
  store ptr %10, ptr %9, align 8
  %11 = load ptr, ptr %5, align 8
  %12 = call ptr @xstrdup(ptr noundef %11)
  %13 = load ptr, ptr %9, align 8
  %14 = getelementptr inbounds nuw %struct.hostrange_t, ptr %13, i32 0, i32 0
  store ptr %12, ptr %14, align 8
  %15 = load i64, ptr %6, align 8
  %16 = load ptr, ptr %9, align 8
  %17 = getelementptr inbounds nuw %struct.hostrange_t, ptr %16, i32 0, i32 1
  store i64 %15, ptr %17, align 8
  %18 = load i64, ptr %7, align 8
  %19 = load ptr, ptr %9, align 8
  %20 = getelementptr inbounds nuw %struct.hostrange_t, ptr %19, i32 0, i32 2
  store i64 %18, ptr %20, align 8
  %21 = load i32, ptr %8, align 4
  %22 = load ptr, ptr %9, align 8
  %23 = getelementptr inbounds nuw %struct.hostrange_t, ptr %22, i32 0, i32 3
  store i32 %21, ptr %23, align 8
  %24 = load ptr, ptr %9, align 8
  %25 = getelementptr inbounds nuw %struct.hostrange_t, ptr %24, i32 0, i32 4
  store i8 0, ptr %25, align 4
  %26 = load ptr, ptr %9, align 8
  call void @llvm.lifetime.end.p0(i64 8, ptr %9) #13
  ret ptr %26
}

; Function Attrs: nounwind uwtable
define internal ptr @hostrange_create_single(ptr noundef %0) #0 {
  %2 = alloca ptr, align 8
  %3 = alloca ptr, align 8
  store ptr %0, ptr %2, align 8
  call void @llvm.lifetime.start.p0(i64 8, ptr %3) #13
  %4 = call ptr @hostrange_new()
  store ptr %4, ptr %3, align 8
  %5 = load ptr, ptr %2, align 8
  %6 = call ptr @xstrdup(ptr noundef %5)
  %7 = load ptr, ptr %3, align 8
  %8 = getelementptr inbounds nuw %struct.hostrange_t, ptr %7, i32 0, i32 0
  store ptr %6, ptr %8, align 8
  %9 = load ptr, ptr %3, align 8
  %10 = getelementptr inbounds nuw %struct.hostrange_t, ptr %9, i32 0, i32 4
  store i8 1, ptr %10, align 4
  %11 = load ptr, ptr %3, align 8
  %12 = getelementptr inbounds nuw %struct.hostrange_t, ptr %11, i32 0, i32 1
  store i64 0, ptr %12, align 8
  %13 = load ptr, ptr %3, align 8
  %14 = getelementptr inbounds nuw %struct.hostrange_t, ptr %13, i32 0, i32 2
  store i64 0, ptr %14, align 8
  %15 = load ptr, ptr %3, align 8
  %16 = getelementptr inbounds nuw %struct.hostrange_t, ptr %15, i32 0, i32 3
  store i32 0, ptr %16, align 8
  %17 = load ptr, ptr %3, align 8
  call void @llvm.lifetime.end.p0(i64 8, ptr %3) #13
  ret ptr %17
}

; Function Attrs: nounwind uwtable
define internal ptr @hostrange_copy(ptr noundef %0) #0 {
  %2 = alloca ptr, align 8
  %3 = alloca ptr, align 8
  store ptr %0, ptr %3, align 8
  %4 = load ptr, ptr %3, align 8
  %5 = getelementptr inbounds nuw %struct.hostrange_t, ptr %4, i32 0, i32 4
  %6 = load i8, ptr %5, align 4, !range !12, !noundef !13
  %7 = trunc i8 %6 to i1
  br i1 %7, label %8, label %13

8:                                                ; preds = %1
  %9 = load ptr, ptr %3, align 8
  %10 = getelementptr inbounds nuw %struct.hostrange_t, ptr %9, i32 0, i32 0
  %11 = load ptr, ptr %10, align 8
  %12 = call ptr @hostrange_create_single(ptr noundef %11)
  store ptr %12, ptr %2, align 8
  br label %27

13:                                               ; preds = %1
  %14 = load ptr, ptr %3, align 8
  %15 = getelementptr inbounds nuw %struct.hostrange_t, ptr %14, i32 0, i32 0
  %16 = load ptr, ptr %15, align 8
  %17 = load ptr, ptr %3, align 8
  %18 = getelementptr inbounds nuw %struct.hostrange_t, ptr %17, i32 0, i32 1
  %19 = load i64, ptr %18, align 8
  %20 = load ptr, ptr %3, align 8
  %21 = getelementptr inbounds nuw %struct.hostrange_t, ptr %20, i32 0, i32 2
  %22 = load i64, ptr %21, align 8
  %23 = load ptr, ptr %3, align 8
  %24 = getelementptr inbounds nuw %struct.hostrange_t, ptr %23, i32 0, i32 3
  %25 = load i32, ptr %24, align 8
  %26 = call ptr @hostrange_create(ptr noundef %16, i64 noundef %19, i64 noundef %22, i32 noundef %25)
  store ptr %26, ptr %2, align 8
  br label %27

27:                                               ; preds = %13, %8
  %28 = load ptr, ptr %2, align 8
  ret ptr %28
}

; Function Attrs: nounwind uwtable
define internal ptr @hostrange_delete_host(ptr noundef %0, i64 noundef %1) #0 {
  %3 = alloca ptr, align 8
  %4 = alloca i64, align 8
  %5 = alloca ptr, align 8
  store ptr %0, ptr %3, align 8
  store i64 %1, ptr %4, align 8
  call void @llvm.lifetime.start.p0(i64 8, ptr %5) #13
  store ptr null, ptr %5, align 8
  %6 = load i64, ptr %4, align 8
  %7 = load ptr, ptr %3, align 8
  %8 = getelementptr inbounds nuw %struct.hostrange_t, ptr %7, i32 0, i32 1
  %9 = load i64, ptr %8, align 8
  %10 = icmp eq i64 %6, %9
  br i1 %10, label %11, label %16

11:                                               ; preds = %2
  %12 = load ptr, ptr %3, align 8
  %13 = getelementptr inbounds nuw %struct.hostrange_t, ptr %12, i32 0, i32 1
  %14 = load i64, ptr %13, align 8
  %15 = add i64 %14, 1
  store i64 %15, ptr %13, align 8
  br label %39

16:                                               ; preds = %2
  %17 = load i64, ptr %4, align 8
  %18 = load ptr, ptr %3, align 8
  %19 = getelementptr inbounds nuw %struct.hostrange_t, ptr %18, i32 0, i32 2
  %20 = load i64, ptr %19, align 8
  %21 = icmp eq i64 %17, %20
  br i1 %21, label %22, label %27

22:                                               ; preds = %16
  %23 = load ptr, ptr %3, align 8
  %24 = getelementptr inbounds nuw %struct.hostrange_t, ptr %23, i32 0, i32 2
  %25 = load i64, ptr %24, align 8
  %26 = add i64 %25, -1
  store i64 %26, ptr %24, align 8
  br label %38

27:                                               ; preds = %16
  %28 = load ptr, ptr %3, align 8
  %29 = call ptr @hostrange_copy(ptr noundef %28)
  store ptr %29, ptr %5, align 8
  %30 = load i64, ptr %4, align 8
  %31 = sub i64 %30, 1
  %32 = load ptr, ptr %3, align 8
  %33 = getelementptr inbounds nuw %struct.hostrange_t, ptr %32, i32 0, i32 2
  store i64 %31, ptr %33, align 8
  %34 = load i64, ptr %4, align 8
  %35 = add i64 %34, 1
  %36 = load ptr, ptr %5, align 8
  %37 = getelementptr inbounds nuw %struct.hostrange_t, ptr %36, i32 0, i32 1
  store i64 %35, ptr %37, align 8
  br label %38

38:                                               ; preds = %27, %22
  br label %39

39:                                               ; preds = %38, %11
  %40 = load ptr, ptr %5, align 8
  call void @llvm.lifetime.end.p0(i64 8, ptr %5) #13
  ret ptr %40
}