; Function Attrs: nounwind uwtable
define internal fastcc ptr @hostrange_delete_host(ptr noundef captures(none) %0, i64 noundef %1) unnamed_addr #0 {
  %3 = getelementptr inbounds nuw i8, ptr %0, i64 8
  %4 = load i64, ptr %3, align 8
  %5 = icmp eq i64 %1, %4
  br i1 %5, label %6, label %8

6:                                                ; preds = %2
  %7 = add i64 %1, 1
  store i64 %7, ptr %3, align 8
  br label %36

8:                                                ; preds = %2
  %9 = getelementptr inbounds nuw i8, ptr %0, i64 16
  %10 = load i64, ptr %9, align 8
  %11 = icmp eq i64 %1, %10
  br i1 %11, label %12, label %14

12:                                               ; preds = %8
  %13 = add i64 %1, -1
  store i64 %13, ptr %9, align 8
  br label %36

14:                                               ; preds = %8
  %15 = getelementptr inbounds nuw i8, ptr %0, i64 28
  %16 = load i8, ptr %15, align 4, !range !14, !noundef !15
  %17 = trunc nuw i8 %16 to i1
  %18 = load ptr, ptr %0, align 8
  br i1 %17, label %19, label %24

19:                                               ; preds = %14
  %20 = tail call ptr @slurm_xcalloc(i64 noundef 1, i64 noundef 32, i1 noundef zeroext true, i1 noundef zeroext false, ptr noundef nonnull @.str.7, i32 noundef 563, ptr noundef nonnull @__func__.hostrange_new) #22
  %21 = tail call ptr @xstrdup(ptr noundef %18) #22
  store ptr %21, ptr %20, align 8
  %22 = getelementptr inbounds nuw i8, ptr %20, i64 28
  store i8 1, ptr %22, align 4
  %23 = getelementptr inbounds nuw i8, ptr %20, i64 8
  tail call void @llvm.memset.p0.i64(ptr noundef nonnull align 8 dereferenceable(20) %23, i8 0, i64 20, i1 false)
  br label %hostrange_copy.exit

24:                                               ; preds = %14
  %25 = getelementptr inbounds nuw i8, ptr %0, i64 24
  %26 = load i32, ptr %25, align 8
  %27 = tail call ptr @slurm_xcalloc(i64 noundef 1, i64 noundef 32, i1 noundef zeroext true, i1 noundef zeroext false, ptr noundef nonnull @.str.7, i32 noundef 563, ptr noundef nonnull @__func__.hostrange_new) #22
  %28 = tail call ptr @xstrdup(ptr noundef %18) #22
  store ptr %28, ptr %27, align 8
  %29 = getelementptr inbounds nuw i8, ptr %27, i64 8
  store i64 %4, ptr %29, align 8
  %30 = getelementptr inbounds nuw i8, ptr %27, i64 16
  store i64 %10, ptr %30, align 8
  %31 = getelementptr inbounds nuw i8, ptr %27, i64 24
  store i32 %26, ptr %31, align 8
  %32 = getelementptr inbounds nuw i8, ptr %27, i64 28
  store i8 0, ptr %32, align 4
  br label %hostrange_copy.exit

hostrange_copy.exit:                              ; preds = %19, %24
  %.0.i = phi ptr [ %20, %19 ], [ %27, %24 ]
  %33 = add i64 %1, -1
  store i64 %33, ptr %9, align 8
  %34 = add i64 %1, 1
  %35 = getelementptr inbounds nuw i8, ptr %.0.i, i64 8
  store i64 %34, ptr %35, align 8
  br label %36

36:                                               ; preds = %12, %hostrange_copy.exit, %6
  %.0 = phi ptr [ null, %6 ], [ null, %12 ], [ %.0.i, %hostrange_copy.exit ]
  ret ptr %.0
}